target datalayout = "e-m:e-p270:32:32-p271:32:32-p272:64:64-i64:64-i128:128-f80:128-n8:16:32:64-S128"
target triple = "x86_64-pc-linux-gnu"

%"class.std::__cxx11::basic_string" = type { %"struct.std::__cxx11::basic_string<char>::_Alloc_hider", i64, %union.anon }
%"struct.std::__cxx11::basic_string<char>::_Alloc_hider" = type { ptr }
%union.anon = type { i64, [8 x i8] }
%"class.(anonymous namespace)::FeaturePlaceHolderExpander" = type { %class.cmPlaceholderExpander, ptr, ptr, ptr }
%class.cmPlaceholderExpander = type { ptr }

@.str.137 = private unnamed_addr constant [8 x i8] c"LIBRARY\00", align 1
@.str.138 = private unnamed_addr constant [9 x i8] c"LIB_ITEM\00", align 1
@.str.139 = private unnamed_addr constant [10 x i8] c"LINK_ITEM\00", align 1

; Function Attrs: mustprogress nounwind uwtable
define linkonce_odr dso_local noundef zeroext i1 @_ZSteqIcSt11char_traitsIcESaIcEEbRKNSt7__cxx1112basic_stringIT_T0_T1_EEPKS5_(ptr noundef nonnull align 8 dereferenceable(32) %0, ptr noundef %1) #5 comdat {
  %3 = alloca ptr, align 8
  %4 = alloca ptr, align 8
  store ptr %0, ptr %3, align 8
  store ptr %1, ptr %4, align 8
  %5 = load ptr, ptr %3, align 8
  %6 = load ptr, ptr %4, align 8
  %7 = call noundef i32 @_ZNKSt7__cxx1112basic_stringIcSt11char_traitsIcESaIcEE7compareEPKc(ptr noundef nonnull align 8 dereferenceable(32) %5, ptr noundef %6) #3
  %8 = icmp eq i32 %7, 0
  ret i1 %8
}

; Function Attrs: mustprogress uwtable
define internal void @_ZN12_GLOBAL__N_126FeaturePlaceHolderExpander14ExpandVariableERKNSt7__cxx1112basic_stringIcSt11char_traitsIcESaIcEEE(ptr dead_on_unwind noalias writable sret(%"class.std::__cxx11::basic_string") align 8 %0, ptr noundef nonnull align 8 dereferenceable(32) %1, ptr noundef nonnull align 8 dereferenceable(32) %2) unnamed_addr #4 align 2 {
  %4 = alloca ptr, align 8
  %5 = alloca ptr, align 8
  %6 = alloca ptr, align 8
  store ptr %0, ptr %4, align 8
  store ptr %1, ptr %5, align 8
  store ptr %2, ptr %6, align 8
  %7 = load ptr, ptr %5, align 8
  %8 = getelementptr inbounds %"class.(anonymous namespace)::FeaturePlaceHolderExpander", ptr %7, i32 0, i32 1
  %9 = load ptr, ptr %8, align 8
  %10 = icmp ne ptr %9, null
  br i1 %10, label %11, label %17

11:                                               ; preds = %3
  %12 = load ptr, ptr %6, align 8
  %13 = call noundef zeroext i1 @_ZSteqIcSt11char_traitsIcESaIcEEbRKNSt7__cxx1112basic_stringIT_T0_T1_EEPKS5_(ptr noundef nonnull align 8 dereferenceable(32) %12, ptr noundef @.str.137)
  br i1 %13, label %14, label %17

14:                                               ; preds = %11
  %15 = getelementptr inbounds %"class.(anonymous namespace)::FeaturePlaceHolderExpander", ptr %7, i32 0, i32 1
  %16 = load ptr, ptr %15, align 8
  call void @_ZNSt7__cxx1112basic_stringIcSt11char_traitsIcESaIcEEC1ERKS4_(ptr noundef nonnull align 8 dereferenceable(32) %0, ptr noundef nonnull align 8 dereferenceable(32) %16)
  br label %39

17:                                               ; preds = %11, %3
  %18 = getelementptr inbounds %"class.(anonymous namespace)::FeaturePlaceHolderExpander", ptr %7, i32 0, i32 2
  %19 = load ptr, ptr %18, align 8
  %20 = icmp ne ptr %19, null
  br i1 %20, label %21, label %27

21:                                               ; preds = %17
  %22 = load ptr, ptr %6, align 8
  %23 = call noundef zeroext i1 @_ZSteqIcSt11char_traitsIcESaIcEEbRKNSt7__cxx1112basic_stringIT_T0_T1_EEPKS5_(ptr noundef nonnull align 8 dereferenceable(32) %22, ptr noundef @.str.138)
  br i1 %23, label %24, label %27

24:                                               ; preds = %21
  %25 = getelementptr inbounds %"class.(anonymous namespace)::FeaturePlaceHolderExpander", ptr %7, i32 0, i32 2
  %26 = load ptr, ptr %25, align 8
  call void @_ZNSt7__cxx1112basic_stringIcSt11char_traitsIcESaIcEEC1ERKS4_(ptr noundef nonnull align 8 dereferenceable(32) %0, ptr noundef nonnull align 8 dereferenceable(32) %26)
  br label %39

27:                                               ; preds = %21, %17
  %28 = getelementptr inbounds %"class.(anonymous namespace)::FeaturePlaceHolderExpander", ptr %7, i32 0, i32 3
  %29 = load ptr, ptr %28, align 8
  %30 = icmp ne ptr %29, null
  br i1 %30, label %31, label %37

31:                                               ; preds = %27
  %32 = load ptr, ptr %6, align 8
  %33 = call noundef zeroext i1 @_ZSteqIcSt11char_traitsIcESaIcEEbRKNSt7__cxx1112basic_stringIT_T0_T1_EEPKS5_(ptr noundef nonnull align 8 dereferenceable(32) %32, ptr noundef @.str.139)
  br i1 %33, label %34, label %37

34:                                               ; preds = %31
  %35 = getelementptr inbounds %"class.(anonymous namespace)::FeaturePlaceHolderExpander", ptr %7, i32 0, i32 3
  %36 = load ptr, ptr %35, align 8
  call void @_ZNSt7__cxx1112basic_stringIcSt11char_traitsIcESaIcEEC1ERKS4_(ptr noundef nonnull align 8 dereferenceable(32) %0, ptr noundef nonnull align 8 dereferenceable(32) %36)
  br label %39

37:                                               ; preds = %31, %27
  %38 = load ptr, ptr %6, align 8
  call void @_ZNSt7__cxx1112basic_stringIcSt11char_traitsIcESaIcEEC1ERKS4_(ptr noundef nonnull align 8 dereferenceable(32) %0, ptr noundef nonnull align 8 dereferenceable(32) %38)
  br label %39

39:                                               ; preds = %37, %34, %24, %14
  ret void
}