; Function Attrs: mustprogress uwtable
define internal void @_ZN12_GLOBAL__N_126FeaturePlaceHolderExpander14ExpandVariableERKNSt7__cxx1112basic_stringIcSt11char_traitsIcESaIcEEE(ptr dead_on_unwind noalias writable sret(%"class.std::__cxx11::basic_string") align 8 %0, ptr nocapture noundef nonnull readonly align 8 dereferenceable(32) %1, ptr noundef nonnull align 8 dereferenceable(32) %2) unnamed_addr #3 align 2 {
  %4 = getelementptr inbounds i8, ptr %1, i64 8
  %5 = load ptr, ptr %4, align 8
  %.not = icmp eq ptr %5, null
  br i1 %.not, label %11, label %6

6:                                                ; preds = %3
  %7 = tail call noundef i32 @_ZNKSt7__cxx1112basic_stringIcSt11char_traitsIcESaIcEE7compareEPKc(ptr noundef nonnull align 8 dereferenceable(32) %2, ptr noundef nonnull @.str.137) #19
  %8 = icmp eq i32 %7, 0
  br i1 %8, label %9, label %11

9:                                                ; preds = %6
  %10 = load ptr, ptr %4, align 8
  br label %26

11:                                               ; preds = %6, %3
  %12 = getelementptr inbounds i8, ptr %1, i64 16
  %13 = load ptr, ptr %12, align 8
  %.not5 = icmp eq ptr %13, null
  br i1 %.not5, label %19, label %14

14:                                               ; preds = %11
  %15 = tail call noundef i32 @_ZNKSt7__cxx1112basic_stringIcSt11char_traitsIcESaIcEE7compareEPKc(ptr noundef nonnull align 8 dereferenceable(32) %2, ptr noundef nonnull @.str.138) #19
  %16 = icmp eq i32 %15, 0
  br i1 %16, label %17, label %19

17:                                               ; preds = %14
  %18 = load ptr, ptr %12, align 8
  br label %26

19:                                               ; preds = %14, %11
  %20 = getelementptr inbounds i8, ptr %1, i64 24
  %21 = load ptr, ptr %20, align 8
  %.not6 = icmp eq ptr %21, null
  br i1 %.not6, label %26, label %22

22:                                               ; preds = %19
  %23 = tail call noundef i32 @_ZNKSt7__cxx1112basic_stringIcSt11char_traitsIcESaIcEE7compareEPKc(ptr noundef nonnull align 8 dereferenceable(32) %2, ptr noundef nonnull @.str.139) #19
  %24 = icmp eq i32 %23, 0
  %25 = load ptr, ptr %20, align 8
  %spec.select = select i1 %24, ptr %25, ptr %2
  br label %26

26:                                               ; preds = %22, %19, %17, %9
  %.sink = phi ptr [ %18, %17 ], [ %10, %9 ], [ %2, %19 ], [ %spec.select, %22 ]
  tail call void @_ZNSt7__cxx1112basic_stringIcSt11char_traitsIcESaIcEEC1ERKS4_(ptr noundef nonnull align 8 dereferenceable(32) %0, ptr noundef nonnull align 8 dereferenceable(32) %.sink)
  ret void
}